; Function Attrs: nofree norecurse nosync nounwind memory(readwrite, inaccessiblemem: none) uwtable
define internal void @process_planar_16(ptr noundef readonly captures(none) %0, ptr noundef readonly captures(none) %1, ptr noundef readonly captures(none) %2) #6 {
  %4 = getelementptr inbounds nuw i8, ptr %1, i64 108
  %5 = load i32, ptr %4, align 4, !tbaa !77
  %6 = icmp sgt i32 %5, 0
  br i1 %6, label %.lr.ph53, label %._crit_edge54

.lr.ph53:                                         ; preds = %3
  %7 = getelementptr inbounds nuw i8, ptr %1, i64 16
  %8 = load ptr, ptr %7, align 8, !tbaa !76
  %9 = load ptr, ptr %1, align 8, !tbaa !76
  %10 = getelementptr inbounds nuw i8, ptr %1, i64 8
  %11 = load ptr, ptr %10, align 8, !tbaa !76
  %12 = getelementptr inbounds nuw i8, ptr %1, i64 24
  %13 = load ptr, ptr %12, align 8, !tbaa !76
  %14 = getelementptr inbounds nuw i8, ptr %1, i64 76
  %15 = load i32, ptr %14, align 4, !tbaa !57
  %16 = getelementptr inbounds nuw i8, ptr %2, i64 16
  %17 = load ptr, ptr %16, align 8, !tbaa !76
  %18 = getelementptr inbounds nuw i8, ptr %2, i64 64
  %19 = getelementptr inbounds nuw i8, ptr %2, i64 72
  %20 = load i32, ptr %19, align 8, !tbaa !57
  %21 = load ptr, ptr %2, align 8, !tbaa !76
  %22 = load i32, ptr %18, align 8, !tbaa !57
  %23 = getelementptr inbounds nuw i8, ptr %2, i64 8
  %24 = load ptr, ptr %23, align 8, !tbaa !76
  %25 = getelementptr inbounds nuw i8, ptr %2, i64 68
  %26 = load i32, ptr %25, align 4, !tbaa !57
  %27 = getelementptr inbounds nuw i8, ptr %2, i64 24
  %28 = load ptr, ptr %27, align 8, !tbaa !76
  %29 = getelementptr inbounds nuw i8, ptr %2, i64 76
  %30 = load i32, ptr %29, align 4, !tbaa !57
  %31 = getelementptr inbounds nuw i8, ptr %1, i64 104
  %32 = load i32, ptr %31, align 8, !tbaa !82
  %33 = icmp sgt i32 %32, 0
  %34 = getelementptr inbounds nuw i8, ptr %0, i64 192
  %35 = getelementptr inbounds nuw i8, ptr %0, i64 131264
  %36 = getelementptr inbounds nuw i8, ptr %0, i64 262336
  br i1 %33, label %.lr.ph53.split.us, label %._crit_edge54

.lr.ph53.split.us:                                ; preds = %.lr.ph53
  %37 = getelementptr inbounds nuw i8, ptr %1, i64 68
  %38 = load i32, ptr %37, align 4, !tbaa !57
  %39 = getelementptr inbounds nuw i8, ptr %1, i64 64
  %40 = load i32, ptr %39, align 8, !tbaa !57
  %41 = getelementptr inbounds nuw i8, ptr %1, i64 72
  %42 = load i32, ptr %41, align 8, !tbaa !57
  %43 = getelementptr inbounds nuw i8, ptr %0, i64 68
  %44 = load i32, ptr %43, align 4, !tbaa !69
  %45 = icmp eq i32 %44, 4
  %46 = sext i32 %42 to i64
  %47 = sext i32 %40 to i64
  %48 = sext i32 %38 to i64
  br i1 %45, label %.lr.ph.us.us.preheader, label %.lr.ph.us.preheader

.lr.ph.us.preheader:                              ; preds = %.lr.ph53.split.us
  %49 = sext i32 %20 to i64
  %50 = sext i32 %22 to i64
  %51 = sext i32 %26 to i64
  %wide.trip.count64 = zext nneg i32 %5 to i64
  %wide.trip.count = zext nneg i32 %32 to i64
  br label %.lr.ph.us

.lr.ph.us.us.preheader:                           ; preds = %.lr.ph53.split.us
  %52 = sext i32 %15 to i64
  %53 = sext i32 %20 to i64
  %54 = sext i32 %22 to i64
  %55 = sext i32 %26 to i64
  %56 = sext i32 %30 to i64
  %wide.trip.count74 = zext nneg i32 %5 to i64
  %wide.trip.count69 = zext nneg i32 %32 to i64
  br label %.lr.ph.us.us

.lr.ph.us.us:                                     ; preds = %.lr.ph.us.us.preheader, %._crit_edge.split.us.us.us
  %indvars.iv71 = phi i64 [ 0, %.lr.ph.us.us.preheader ], [ %indvars.iv.next72, %._crit_edge.split.us.us.us ]
  %57 = mul nsw i64 %indvars.iv71, %46
  %58 = getelementptr inbounds i8, ptr %8, i64 %57
  %59 = mul nsw i64 %indvars.iv71, %47
  %60 = getelementptr inbounds i8, ptr %9, i64 %59
  %61 = mul nsw i64 %indvars.iv71, %48
  %62 = getelementptr inbounds i8, ptr %11, i64 %61
  %63 = mul nsw i64 %indvars.iv71, %52
  %64 = getelementptr inbounds i8, ptr %13, i64 %63
  %65 = mul nsw i64 %indvars.iv71, %53
  %66 = getelementptr inbounds i8, ptr %17, i64 %65
  %67 = mul nsw i64 %indvars.iv71, %54
  %68 = getelementptr inbounds i8, ptr %21, i64 %67
  %69 = mul nsw i64 %indvars.iv71, %55
  %70 = getelementptr inbounds i8, ptr %24, i64 %69
  %71 = mul nsw i64 %indvars.iv71, %56
  %72 = getelementptr inbounds i8, ptr %28, i64 %71
  br label %73

73:                                               ; preds = %73, %.lr.ph.us.us
  %indvars.iv66 = phi i64 [ %indvars.iv.next67, %73 ], [ 0, %.lr.ph.us.us ]
  %74 = getelementptr inbounds nuw i16, ptr %58, i64 %indvars.iv66
  %75 = load i16, ptr %74, align 2, !tbaa !46
  %76 = zext i16 %75 to i64
  %77 = getelementptr inbounds nuw [65536 x i16], ptr %34, i64 0, i64 %76
  %78 = load i16, ptr %77, align 2, !tbaa !46
  %79 = getelementptr inbounds nuw i16, ptr %66, i64 %indvars.iv66
  store i16 %78, ptr %79, align 2, !tbaa !46
  %80 = getelementptr inbounds nuw i16, ptr %60, i64 %indvars.iv66
  %81 = load i16, ptr %80, align 2, !tbaa !46
  %82 = zext i16 %81 to i64
  %83 = getelementptr inbounds nuw [65536 x i16], ptr %35, i64 0, i64 %82
  %84 = load i16, ptr %83, align 2, !tbaa !46
  %85 = getelementptr inbounds nuw i16, ptr %68, i64 %indvars.iv66
  store i16 %84, ptr %85, align 2, !tbaa !46
  %86 = getelementptr inbounds nuw i16, ptr %62, i64 %indvars.iv66
  %87 = load i16, ptr %86, align 2, !tbaa !46
  %88 = zext i16 %87 to i64
  %89 = getelementptr inbounds nuw [65536 x i16], ptr %36, i64 0, i64 %88
  %90 = load i16, ptr %89, align 2, !tbaa !46
  %91 = getelementptr inbounds nuw i16, ptr %70, i64 %indvars.iv66
  store i16 %90, ptr %91, align 2, !tbaa !46
  %92 = getelementptr inbounds nuw i16, ptr %64, i64 %indvars.iv66
  %93 = load i16, ptr %92, align 2, !tbaa !46
  %94 = getelementptr inbounds nuw i16, ptr %72, i64 %indvars.iv66
  store i16 %93, ptr %94, align 2, !tbaa !46
  %indvars.iv.next67 = add nuw nsw i64 %indvars.iv66, 1
  %exitcond70.not = icmp eq i64 %indvars.iv.next67, %wide.trip.count69
  br i1 %exitcond70.not, label %._crit_edge.split.us.us.us, label %73, !llvm.loop !101

._crit_edge.split.us.us.us:                       ; preds = %73
  %indvars.iv.next72 = add nuw nsw i64 %indvars.iv71, 1
  %exitcond75.not = icmp eq i64 %indvars.iv.next72, %wide.trip.count74
  br i1 %exitcond75.not, label %._crit_edge54, label %.lr.ph.us.us, !llvm.loop !102

.lr.ph.us:                                        ; preds = %.lr.ph.us.preheader, %._crit_edge.split.us56
  %indvars.iv61 = phi i64 [ 0, %.lr.ph.us.preheader ], [ %indvars.iv.next62, %._crit_edge.split.us56 ]
  %95 = mul nsw i64 %indvars.iv61, %46
  %96 = getelementptr inbounds i8, ptr %8, i64 %95
  %97 = mul nsw i64 %indvars.iv61, %47
  %98 = getelementptr inbounds i8, ptr %9, i64 %97
  %99 = mul nsw i64 %indvars.iv61, %48
  %100 = getelementptr inbounds i8, ptr %11, i64 %99
  %101 = mul nsw i64 %indvars.iv61, %49
  %102 = getelementptr inbounds i8, ptr %17, i64 %101
  %103 = mul nsw i64 %indvars.iv61, %50
  %104 = getelementptr inbounds i8, ptr %21, i64 %103
  %105 = mul nsw i64 %indvars.iv61, %51
  %106 = getelementptr inbounds i8, ptr %24, i64 %105
  br label %107

107:                                              ; preds = %.lr.ph.us, %107
  %indvars.iv = phi i64 [ 0, %.lr.ph.us ], [ %indvars.iv.next, %107 ]
  %108 = getelementptr inbounds nuw i16, ptr %96, i64 %indvars.iv
  %109 = load i16, ptr %108, align 2, !tbaa !46
  %110 = zext i16 %109 to i64
  %111 = getelementptr inbounds nuw [65536 x i16], ptr %34, i64 0, i64 %110
  %112 = load i16, ptr %111, align 2, !tbaa !46
  %113 = getelementptr inbounds nuw i16, ptr %102, i64 %indvars.iv
  store i16 %112, ptr %113, align 2, !tbaa !46
  %114 = getelementptr inbounds nuw i16, ptr %98, i64 %indvars.iv
  %115 = load i16, ptr %114, align 2, !tbaa !46
  %116 = zext i16 %115 to i64
  %117 = getelementptr inbounds nuw [65536 x i16], ptr %35, i64 0, i64 %116
  %118 = load i16, ptr %117, align 2, !tbaa !46
  %119 = getelementptr inbounds nuw i16, ptr %104, i64 %indvars.iv
  store i16 %118, ptr %119, align 2, !tbaa !46
  %120 = getelementptr inbounds nuw i16, ptr %100, i64 %indvars.iv
  %121 = load i16, ptr %120, align 2, !tbaa !46
  %122 = zext i16 %121 to i64
  %123 = getelementptr inbounds nuw [65536 x i16], ptr %36, i64 0, i64 %122
  %124 = load i16, ptr %123, align 2, !tbaa !46
  %125 = getelementptr inbounds nuw i16, ptr %106, i64 %indvars.iv
  store i16 %124, ptr %125, align 2, !tbaa !46
  %indvars.iv.next = add nuw nsw i64 %indvars.iv, 1
  %exitcond.not = icmp eq i64 %indvars.iv.next, %wide.trip.count
  br i1 %exitcond.not, label %._crit_edge.split.us56, label %107, !llvm.loop !101

._crit_edge.split.us56:                           ; preds = %107
  %indvars.iv.next62 = add nuw nsw i64 %indvars.iv61, 1
  %exitcond65.not = icmp eq i64 %indvars.iv.next62, %wide.trip.count64
  br i1 %exitcond65.not, label %._crit_edge54, label %.lr.ph.us, !llvm.loop !102

._crit_edge54:                                    ; preds = %._crit_edge.split.us56, %._crit_edge.split.us.us.us, %.lr.ph53, %3
  ret void
}